target datalayout = "e-m:e-p270:32:32-p271:32:32-p272:64:64-i64:64-i128:128-f80:128-n8:16:32:64-S128"
target triple = "x86_64-pc-linux-gnu"

%struct.mbedtls_hmac_drbg_context = type { %struct.mbedtls_md_context_t, [64 x i8], i32, i64, i32, i32, ptr, ptr }
%struct.mbedtls_md_context_t = type { ptr, ptr, ptr }

; Function Attrs: nounwind uwtable
define internal i32 @hmac_drbg_reseed_core(ptr noundef %0, ptr noundef %1, i64 noundef %2, i32 noundef %3) #0 {
  %5 = alloca i32, align 4
  %6 = alloca ptr, align 8
  %7 = alloca ptr, align 8
  %8 = alloca i64, align 8
  %9 = alloca i32, align 4
  %10 = alloca [384 x i8], align 16
  %11 = alloca i64, align 8
  %12 = alloca i32, align 4
  %13 = alloca i64, align 8
  %14 = alloca i32, align 4
  store ptr %0, ptr %6, align 8, !tbaa !3
  store ptr %1, ptr %7, align 8, !tbaa !14
  store i64 %2, ptr %8, align 8, !tbaa !16
  store i32 %3, ptr %9, align 4, !tbaa !19
  call void @llvm.lifetime.start.p0(i64 384, ptr %10) #7
  call void @llvm.lifetime.start.p0(i64 8, ptr %11) #7
  store i64 0, ptr %11, align 8, !tbaa !16
  call void @llvm.lifetime.start.p0(i64 4, ptr %12) #7
  store i32 -110, ptr %12, align 4, !tbaa !19
  call void @llvm.lifetime.start.p0(i64 8, ptr %13) #7
  %15 = load i32, ptr %9, align 4, !tbaa !19
  %16 = icmp eq i32 %15, 0
  br i1 %16, label %17, label %21

17:                                               ; preds = %4
  %18 = load ptr, ptr %6, align 8, !tbaa !3
  %19 = getelementptr inbounds nuw %struct.mbedtls_hmac_drbg_context, ptr %18, i32 0, i32 3
  %20 = load i64, ptr %19, align 8, !tbaa !23
  store i64 %20, ptr %13, align 8, !tbaa !16
  br label %27

21:                                               ; preds = %4
  %22 = load ptr, ptr %6, align 8, !tbaa !3
  %23 = getelementptr inbounds nuw %struct.mbedtls_hmac_drbg_context, ptr %22, i32 0, i32 3
  %24 = load i64, ptr %23, align 8, !tbaa !23
  %25 = mul i64 %24, 3
  %26 = udiv i64 %25, 2
  store i64 %26, ptr %13, align 8, !tbaa !16
  br label %27

27:                                               ; preds = %21, %17
  %28 = load i64, ptr %8, align 8, !tbaa !16
  %29 = icmp ugt i64 %28, 256
  br i1 %29, label %35, label %30

30:                                               ; preds = %27
  %31 = load i64, ptr %13, align 8, !tbaa !16
  %32 = load i64, ptr %8, align 8, !tbaa !16
  %33 = add i64 %31, %32
  %34 = icmp ugt i64 %33, 384
  br i1 %34, label %35, label %36

35:                                               ; preds = %30, %27
  store i32 -5, ptr %5, align 4
  store i32 1, ptr %14, align 4
  br label %37

36:                                               ; preds = %30
  store i32 0, ptr %14, align 4
  br label %37

37:                                               ; preds = %36, %35
  call void @llvm.lifetime.end.p0(i64 8, ptr %13) #7
  %38 = load i32, ptr %14, align 4
  switch i32 %38, label %115 [
    i32 0, label %39
  ]

39:                                               ; preds = %37
  %40 = getelementptr inbounds [384 x i8], ptr %10, i64 0, i64 0
  call void @llvm.memset.p0.i64(ptr align 16 %40, i8 0, i64 384, i1 false)
  %41 = load ptr, ptr %6, align 8, !tbaa !3
  %42 = getelementptr inbounds nuw %struct.mbedtls_hmac_drbg_context, ptr %41, i32 0, i32 6
  %43 = load ptr, ptr %42, align 8, !tbaa !24
  %44 = load ptr, ptr %6, align 8, !tbaa !3
  %45 = getelementptr inbounds nuw %struct.mbedtls_hmac_drbg_context, ptr %44, i32 0, i32 7
  %46 = load ptr, ptr %45, align 8, !tbaa !25
  %47 = getelementptr inbounds [384 x i8], ptr %10, i64 0, i64 0
  %48 = load ptr, ptr %6, align 8, !tbaa !3
  %49 = getelementptr inbounds nuw %struct.mbedtls_hmac_drbg_context, ptr %48, i32 0, i32 3
  %50 = load i64, ptr %49, align 8, !tbaa !23
  %51 = call i32 %43(ptr noundef %46, ptr noundef %47, i64 noundef %50)
  store i32 %51, ptr %12, align 4, !tbaa !19
  %52 = icmp ne i32 %51, 0
  br i1 %52, label %53, label %54

53:                                               ; preds = %39
  store i32 -9, ptr %5, align 4
  store i32 1, ptr %14, align 4
  br label %115

54:                                               ; preds = %39
  %55 = load ptr, ptr %6, align 8, !tbaa !3
  %56 = getelementptr inbounds nuw %struct.mbedtls_hmac_drbg_context, ptr %55, i32 0, i32 3
  %57 = load i64, ptr %56, align 8, !tbaa !23
  %58 = load i64, ptr %11, align 8, !tbaa !16
  %59 = add i64 %58, %57
  store i64 %59, ptr %11, align 8, !tbaa !16
  %60 = load i32, ptr %9, align 4, !tbaa !19
  %61 = icmp ne i32 %60, 0
  br i1 %61, label %62, label %86

62:                                               ; preds = %54
  %63 = load ptr, ptr %6, align 8, !tbaa !3
  %64 = getelementptr inbounds nuw %struct.mbedtls_hmac_drbg_context, ptr %63, i32 0, i32 6
  %65 = load ptr, ptr %64, align 8, !tbaa !24
  %66 = load ptr, ptr %6, align 8, !tbaa !3
  %67 = getelementptr inbounds nuw %struct.mbedtls_hmac_drbg_context, ptr %66, i32 0, i32 7
  %68 = load ptr, ptr %67, align 8, !tbaa !25
  %69 = getelementptr inbounds [384 x i8], ptr %10, i64 0, i64 0
  %70 = load i64, ptr %11, align 8, !tbaa !16
  %71 = getelementptr inbounds nuw i8, ptr %69, i64 %70
  %72 = load ptr, ptr %6, align 8, !tbaa !3
  %73 = getelementptr inbounds nuw %struct.mbedtls_hmac_drbg_context, ptr %72, i32 0, i32 3
  %74 = load i64, ptr %73, align 8, !tbaa !23
  %75 = udiv i64 %74, 2
  %76 = call i32 %65(ptr noundef %68, ptr noundef %71, i64 noundef %75)
  store i32 %76, ptr %12, align 4, !tbaa !19
  %77 = icmp ne i32 %76, 0
  br i1 %77, label %78, label %79

78:                                               ; preds = %62
  store i32 -9, ptr %5, align 4
  store i32 1, ptr %14, align 4
  br label %115

79:                                               ; preds = %62
  %80 = load ptr, ptr %6, align 8, !tbaa !3
  %81 = getelementptr inbounds nuw %struct.mbedtls_hmac_drbg_context, ptr %80, i32 0, i32 3
  %82 = load i64, ptr %81, align 8, !tbaa !23
  %83 = udiv i64 %82, 2
  %84 = load i64, ptr %11, align 8, !tbaa !16
  %85 = add i64 %84, %83
  store i64 %85, ptr %11, align 8, !tbaa !16
  br label %86

86:                                               ; preds = %79, %54
  %87 = load ptr, ptr %7, align 8, !tbaa !14
  %88 = icmp ne ptr %87, null
  br i1 %88, label %89, label %101

89:                                               ; preds = %86
  %90 = load i64, ptr %8, align 8, !tbaa !16
  %91 = icmp ne i64 %90, 0
  br i1 %91, label %92, label %101

92:                                               ; preds = %89
  %93 = getelementptr inbounds [384 x i8], ptr %10, i64 0, i64 0
  %94 = load i64, ptr %11, align 8, !tbaa !16
  %95 = getelementptr inbounds nuw i8, ptr %93, i64 %94
  %96 = load ptr, ptr %7, align 8, !tbaa !14
  %97 = load i64, ptr %8, align 8, !tbaa !16
  call void @llvm.memcpy.p0.p0.i64(ptr align 1 %95, ptr align 1 %96, i64 %97, i1 false)
  %98 = load i64, ptr %8, align 8, !tbaa !16
  %99 = load i64, ptr %11, align 8, !tbaa !16
  %100 = add i64 %99, %98
  store i64 %100, ptr %11, align 8, !tbaa !16
  br label %101

101:                                              ; preds = %92, %89, %86
  %102 = load ptr, ptr %6, align 8, !tbaa !3
  %103 = getelementptr inbounds [384 x i8], ptr %10, i64 0, i64 0
  %104 = load i64, ptr %11, align 8, !tbaa !16
  %105 = call i32 @mbedtls_hmac_drbg_update(ptr noundef %102, ptr noundef %103, i64 noundef %104)
  store i32 %105, ptr %12, align 4, !tbaa !19
  %106 = icmp ne i32 %105, 0
  br i1 %106, label %107, label %108

107:                                              ; preds = %101
  br label %111

108:                                              ; preds = %101
  %109 = load ptr, ptr %6, align 8, !tbaa !3
  %110 = getelementptr inbounds nuw %struct.mbedtls_hmac_drbg_context, ptr %109, i32 0, i32 2
  store i32 1, ptr %110, align 8, !tbaa !26
  br label %111

111:                                              ; preds = %108, %107
  %112 = getelementptr inbounds [384 x i8], ptr %10, i64 0, i64 0
  %113 = load i64, ptr %11, align 8, !tbaa !16
  call void @mbedtls_platform_zeroize(ptr noundef %112, i64 noundef %113)
  %114 = load i32, ptr %12, align 4, !tbaa !19
  store i32 %114, ptr %5, align 4
  store i32 1, ptr %14, align 4
  br label %115

115:                                              ; preds = %111, %78, %53, %37
  call void @llvm.lifetime.end.p0(i64 4, ptr %12) #7
  call void @llvm.lifetime.end.p0(i64 8, ptr %11) #7
  call void @llvm.lifetime.end.p0(i64 384, ptr %10) #7
  %116 = load i32, ptr %5, align 4
  ret i32 %116
}

; Function Attrs: nounwind uwtable
define hidden i32 @mbedtls_hmac_drbg_reseed(ptr noundef %0, ptr noundef %1, i64 noundef %2) #0 {
  %4 = alloca ptr, align 8
  %5 = alloca ptr, align 8
  %6 = alloca i64, align 8
  store ptr %0, ptr %4, align 8, !tbaa !3
  store ptr %1, ptr %5, align 8, !tbaa !14
  store i64 %2, ptr %6, align 8, !tbaa !16
  %7 = load ptr, ptr %4, align 8, !tbaa !3
  %8 = load ptr, ptr %5, align 8, !tbaa !14
  %9 = load i64, ptr %6, align 8, !tbaa !16
  %10 = call i32 @hmac_drbg_reseed_core(ptr noundef %7, ptr noundef %8, i64 noundef %9, i32 noundef 0)
  ret i32 %10
}

; Function Attrs: nounwind uwtable
define hidden i32 @mbedtls_hmac_drbg_random_with_add(ptr noundef %0, ptr noundef %1, i64 noundef %2, ptr noundef %3, i64 noundef %4) #0 {
  %6 = alloca i32, align 4
  %7 = alloca ptr, align 8
  %8 = alloca ptr, align 8
  %9 = alloca i64, align 8
  %10 = alloca ptr, align 8
  %11 = alloca i64, align 8
  %12 = alloca i32, align 4
  %13 = alloca ptr, align 8
  %14 = alloca i64, align 8
  %15 = alloca i64, align 8
  %16 = alloca ptr, align 8
  %17 = alloca i32, align 4
  %18 = alloca i64, align 8
  store ptr %0, ptr %7, align 8, !tbaa !27
  store ptr %1, ptr %8, align 8, !tbaa !14
  store i64 %2, ptr %9, align 8, !tbaa !16
  store ptr %3, ptr %10, align 8, !tbaa !14
  store i64 %4, ptr %11, align 8, !tbaa !16
  call void @llvm.lifetime.start.p0(i64 4, ptr %12) #7
  store i32 -110, ptr %12, align 4, !tbaa !19
  call void @llvm.lifetime.start.p0(i64 8, ptr %13) #7
  %19 = load ptr, ptr %7, align 8, !tbaa !27
  store ptr %19, ptr %13, align 8, !tbaa !3
  call void @llvm.lifetime.start.p0(i64 8, ptr %14) #7
  %20 = load ptr, ptr %13, align 8, !tbaa !3
  %21 = getelementptr inbounds nuw %struct.mbedtls_hmac_drbg_context, ptr %20, i32 0, i32 0
  %22 = getelementptr inbounds nuw %struct.mbedtls_md_context_t, ptr %21, i32 0, i32 0
  %23 = load ptr, ptr %22, align 8, !tbaa !17
  %24 = call zeroext i8 @mbedtls_md_get_size(ptr noundef %23)
  %25 = zext i8 %24 to i64
  store i64 %25, ptr %14, align 8, !tbaa !16
  call void @llvm.lifetime.start.p0(i64 8, ptr %15) #7
  %26 = load i64, ptr %9, align 8, !tbaa !16
  store i64 %26, ptr %15, align 8, !tbaa !16
  call void @llvm.lifetime.start.p0(i64 8, ptr %16) #7
  %27 = load ptr, ptr %8, align 8, !tbaa !14
  store ptr %27, ptr %16, align 8, !tbaa !14
  %28 = load i64, ptr %9, align 8, !tbaa !16
  %29 = icmp ugt i64 %28, 1024
  br i1 %29, label %30, label %31

30:                                               ; preds = %5
  store i32 -3, ptr %6, align 4
  store i32 1, ptr %17, align 4
  br label %143

31:                                               ; preds = %5
  %32 = load i64, ptr %11, align 8, !tbaa !16
  %33 = icmp ugt i64 %32, 256
  br i1 %33, label %34, label %35

34:                                               ; preds = %31
  store i32 -5, ptr %6, align 4
  store i32 1, ptr %17, align 4
  br label %143

35:                                               ; preds = %31
  %36 = load ptr, ptr %13, align 8, !tbaa !3
  %37 = getelementptr inbounds nuw %struct.mbedtls_hmac_drbg_context, ptr %36, i32 0, i32 6
  %38 = load ptr, ptr %37, align 8, !tbaa !24
  %39 = icmp ne ptr %38, null
  br i1 %39, label %40, label %62

40:                                               ; preds = %35
  %41 = load ptr, ptr %13, align 8, !tbaa !3
  %42 = getelementptr inbounds nuw %struct.mbedtls_hmac_drbg_context, ptr %41, i32 0, i32 4
  %43 = load i32, ptr %42, align 8, !tbaa !28
  %44 = icmp eq i32 %43, 1
  br i1 %44, label %53, label %45

45:                                               ; preds = %40
  %46 = load ptr, ptr %13, align 8, !tbaa !3
  %47 = getelementptr inbounds nuw %struct.mbedtls_hmac_drbg_context, ptr %46, i32 0, i32 2
  %48 = load i32, ptr %47, align 8, !tbaa !26
  %49 = load ptr, ptr %13, align 8, !tbaa !3
  %50 = getelementptr inbounds nuw %struct.mbedtls_hmac_drbg_context, ptr %49, i32 0, i32 5
  %51 = load i32, ptr %50, align 4, !tbaa !8
  %52 = icmp sgt i32 %48, %51
  br i1 %52, label %53, label %62

53:                                               ; preds = %45, %40
  %54 = load ptr, ptr %13, align 8, !tbaa !3
  %55 = load ptr, ptr %10, align 8, !tbaa !14
  %56 = load i64, ptr %11, align 8, !tbaa !16
  %57 = call i32 @mbedtls_hmac_drbg_reseed(ptr noundef %54, ptr noundef %55, i64 noundef %56)
  store i32 %57, ptr %12, align 4, !tbaa !19
  %58 = icmp ne i32 %57, 0
  br i1 %58, label %59, label %61

59:                                               ; preds = %53
  %60 = load i32, ptr %12, align 4, !tbaa !19
  store i32 %60, ptr %6, align 4
  store i32 1, ptr %17, align 4
  br label %143

61:                                               ; preds = %53
  store i64 0, ptr %11, align 8, !tbaa !16
  br label %62

62:                                               ; preds = %61, %45, %35
  %63 = load ptr, ptr %10, align 8, !tbaa !14
  %64 = icmp ne ptr %63, null
  br i1 %64, label %65, label %76

65:                                               ; preds = %62
  %66 = load i64, ptr %11, align 8, !tbaa !16
  %67 = icmp ne i64 %66, 0
  br i1 %67, label %68, label %76

68:                                               ; preds = %65
  %69 = load ptr, ptr %13, align 8, !tbaa !3
  %70 = load ptr, ptr %10, align 8, !tbaa !14
  %71 = load i64, ptr %11, align 8, !tbaa !16
  %72 = call i32 @mbedtls_hmac_drbg_update(ptr noundef %69, ptr noundef %70, i64 noundef %71)
  store i32 %72, ptr %12, align 4, !tbaa !19
  %73 = icmp ne i32 %72, 0
  br i1 %73, label %74, label %75

74:                                               ; preds = %68
  br label %141

75:                                               ; preds = %68
  br label %76

76:                                               ; preds = %75, %65, %62
  br label %77

77:                                               ; preds = %128, %76
  %78 = load i64, ptr %15, align 8, !tbaa !16
  %79 = icmp ne i64 %78, 0
  br i1 %79, label %80, label %129

80:                                               ; preds = %77
  call void @llvm.lifetime.start.p0(i64 8, ptr %18) #7
  %81 = load i64, ptr %15, align 8, !tbaa !16
  %82 = load i64, ptr %14, align 8, !tbaa !16
  %83 = icmp ugt i64 %81, %82
  br i1 %83, label %84, label %86

84:                                               ; preds = %80
  %85 = load i64, ptr %14, align 8, !tbaa !16
  br label %88

86:                                               ; preds = %80
  %87 = load i64, ptr %15, align 8, !tbaa !16
  br label %88

88:                                               ; preds = %86, %84
  %89 = phi i64 [ %85, %84 ], [ %87, %86 ]
  store i64 %89, ptr %18, align 8, !tbaa !16
  %90 = load ptr, ptr %13, align 8, !tbaa !3
  %91 = getelementptr inbounds nuw %struct.mbedtls_hmac_drbg_context, ptr %90, i32 0, i32 0
  %92 = call i32 @mbedtls_md_hmac_reset(ptr noundef %91)
  store i32 %92, ptr %12, align 4, !tbaa !19
  %93 = icmp ne i32 %92, 0
  br i1 %93, label %94, label %95

94:                                               ; preds = %88
  store i32 2, ptr %17, align 4
  br label %126

95:                                               ; preds = %88
  %96 = load ptr, ptr %13, align 8, !tbaa !3
  %97 = getelementptr inbounds nuw %struct.mbedtls_hmac_drbg_context, ptr %96, i32 0, i32 0
  %98 = load ptr, ptr %13, align 8, !tbaa !3
  %99 = getelementptr inbounds nuw %struct.mbedtls_hmac_drbg_context, ptr %98, i32 0, i32 1
  %100 = getelementptr inbounds [64 x i8], ptr %99, i64 0, i64 0
  %101 = load i64, ptr %14, align 8, !tbaa !16
  %102 = call i32 @mbedtls_md_hmac_update(ptr noundef %97, ptr noundef %100, i64 noundef %101)
  store i32 %102, ptr %12, align 4, !tbaa !19
  %103 = icmp ne i32 %102, 0
  br i1 %103, label %104, label %105

104:                                              ; preds = %95
  store i32 2, ptr %17, align 4
  br label %126

105:                                              ; preds = %95
  %106 = load ptr, ptr %13, align 8, !tbaa !3
  %107 = getelementptr inbounds nuw %struct.mbedtls_hmac_drbg_context, ptr %106, i32 0, i32 0
  %108 = load ptr, ptr %13, align 8, !tbaa !3
  %109 = getelementptr inbounds nuw %struct.mbedtls_hmac_drbg_context, ptr %108, i32 0, i32 1
  %110 = getelementptr inbounds [64 x i8], ptr %109, i64 0, i64 0
  %111 = call i32 @mbedtls_md_hmac_finish(ptr noundef %107, ptr noundef %110)
  store i32 %111, ptr %12, align 4, !tbaa !19
  %112 = icmp ne i32 %111, 0
  br i1 %112, label %113, label %114

113:                                              ; preds = %105
  store i32 2, ptr %17, align 4
  br label %126

114:                                              ; preds = %105
  %115 = load ptr, ptr %16, align 8, !tbaa !14
  %116 = load ptr, ptr %13, align 8, !tbaa !3
  %117 = getelementptr inbounds nuw %struct.mbedtls_hmac_drbg_context, ptr %116, i32 0, i32 1
  %118 = getelementptr inbounds [64 x i8], ptr %117, i64 0, i64 0
  %119 = load i64, ptr %18, align 8, !tbaa !16
  call void @llvm.memcpy.p0.p0.i64(ptr align 1 %115, ptr align 8 %118, i64 %119, i1 false)
  %120 = load i64, ptr %18, align 8, !tbaa !16
  %121 = load ptr, ptr %16, align 8, !tbaa !14
  %122 = getelementptr inbounds nuw i8, ptr %121, i64 %120
  store ptr %122, ptr %16, align 8, !tbaa !14
  %123 = load i64, ptr %18, align 8, !tbaa !16
  %124 = load i64, ptr %15, align 8, !tbaa !16
  %125 = sub i64 %124, %123
  store i64 %125, ptr %15, align 8, !tbaa !16
  store i32 0, ptr %17, align 4
  br label %126

126:                                              ; preds = %113, %104, %94, %114
  call void @llvm.lifetime.end.p0(i64 8, ptr %18) #7
  %127 = load i32, ptr %17, align 4
  switch i32 %127, label %143 [
    i32 0, label %128
    i32 2, label %141
  ]

128:                                              ; preds = %126
  br label %77, !llvm.loop !29

129:                                              ; preds = %77
  %130 = load ptr, ptr %13, align 8, !tbaa !3
  %131 = load ptr, ptr %10, align 8, !tbaa !14
  %132 = load i64, ptr %11, align 8, !tbaa !16
  %133 = call i32 @mbedtls_hmac_drbg_update(ptr noundef %130, ptr noundef %131, i64 noundef %132)
  store i32 %133, ptr %12, align 4, !tbaa !19
  %134 = icmp ne i32 %133, 0
  br i1 %134, label %135, label %136

135:                                              ; preds = %129
  br label %141

136:                                              ; preds = %129
  %137 = load ptr, ptr %13, align 8, !tbaa !3
  %138 = getelementptr inbounds nuw %struct.mbedtls_hmac_drbg_context, ptr %137, i32 0, i32 2
  %139 = load i32, ptr %138, align 8, !tbaa !26
  %140 = add nsw i32 %139, 1
  store i32 %140, ptr %138, align 8, !tbaa !26
  br label %141

141:                                              ; preds = %136, %126, %135, %74
  %142 = load i32, ptr %12, align 4, !tbaa !19
  store i32 %142, ptr %6, align 4
  store i32 1, ptr %17, align 4
  br label %143

143:                                              ; preds = %141, %126, %59, %34, %30
  call void @llvm.lifetime.end.p0(i64 8, ptr %16) #7
  call void @llvm.lifetime.end.p0(i64 8, ptr %15) #7
  call void @llvm.lifetime.end.p0(i64 8, ptr %14) #7
  call void @llvm.lifetime.end.p0(i64 8, ptr %13) #7
  call void @llvm.lifetime.end.p0(i64 4, ptr %12) #7
  %144 = load i32, ptr %6, align 4
  ret i32 %144
}