; Function Attrs: nounwind uwtable
define hidden i32 @mbedtls_hmac_drbg_random_with_add(ptr noundef %0, ptr noundef writeonly captures(none) %1, i64 noundef %2, ptr noundef %3, i64 noundef %4) local_unnamed_addr #2 {
  %6 = alloca [384 x i8], align 16
  %7 = load ptr, ptr %0, align 8, !tbaa !12
  %8 = tail call zeroext i8 @mbedtls_md_get_size(ptr noundef %7) #12
  %9 = zext i8 %8 to i64
  %10 = icmp ugt i64 %2, 1024
  br i1 %10, label %.thread77, label %11

11:                                               ; preds = %5
  %12 = icmp ugt i64 %4, 256
  br i1 %12, label %.thread77, label %13

13:                                               ; preds = %11
  %14 = getelementptr inbounds nuw i8, ptr %0, i64 112
  %15 = load ptr, ptr %14, align 8, !tbaa !17
  %.not = icmp eq ptr %15, null
  br i1 %.not, label %44, label %16

16:                                               ; preds = %13
  %17 = getelementptr inbounds nuw i8, ptr %0, i64 104
  %18 = load i32, ptr %17, align 8, !tbaa !20
  %19 = icmp eq i32 %18, 1
  br i1 %19, label %26, label %20

20:                                               ; preds = %16
  %21 = getelementptr inbounds nuw i8, ptr %0, i64 88
  %22 = load i32, ptr %21, align 8, !tbaa !19
  %23 = getelementptr inbounds nuw i8, ptr %0, i64 108
  %24 = load i32, ptr %23, align 4, !tbaa !3
  %25 = icmp sgt i32 %22, %24
  br i1 %25, label %26, label %44

26:                                               ; preds = %20, %16
  call void @llvm.lifetime.start.p0(i64 384, ptr nonnull %6) #12
  %27 = getelementptr inbounds nuw i8, ptr %0, i64 96
  %28 = load i64, ptr %27, align 8, !tbaa !16
  %29 = add i64 %28, %4
  %30 = icmp ugt i64 %29, 384
  br i1 %30, label %mbedtls_hmac_drbg_reseed.exit.thread, label %.critedge.i.i

.critedge.i.i:                                    ; preds = %26
  call void @llvm.memset.p0.i64(ptr noundef nonnull align 16 dereferenceable(384) %6, i8 0, i64 384, i1 false)
  %31 = getelementptr inbounds nuw i8, ptr %0, i64 120
  %32 = load ptr, ptr %31, align 8, !tbaa !18
  %33 = call i32 %15(ptr noundef %32, ptr noundef nonnull %6, i64 noundef %28) #12
  %.not.i.i = icmp eq i32 %33, 0
  br i1 %.not.i.i, label %34, label %mbedtls_hmac_drbg_reseed.exit.thread

34:                                               ; preds = %.critedge.i.i
  %35 = load i64, ptr %27, align 8, !tbaa !16
  %36 = icmp ne ptr %3, null
  %37 = icmp ne i64 %4, 0
  %or.cond.i.i = and i1 %36, %37
  br i1 %or.cond.i.i, label %38, label %41

38:                                               ; preds = %34
  %39 = getelementptr inbounds nuw i8, ptr %6, i64 %35
  call void @llvm.memcpy.p0.p0.i64(ptr nonnull align 1 %39, ptr nonnull readonly align 1 %3, i64 %4, i1 false)
  %40 = add i64 %35, %4
  br label %41

41:                                               ; preds = %38, %34
  %.1.i.i = phi i64 [ %40, %38 ], [ %35, %34 ]
  %42 = call i32 @mbedtls_hmac_drbg_update(ptr noundef nonnull %0, ptr noundef nonnull %6, i64 noundef %.1.i.i)
  %.not41.i.i = icmp eq i32 %42, 0
  br i1 %.not41.i.i, label %.thread, label %mbedtls_hmac_drbg_reseed.exit

.thread:                                          ; preds = %41
  %43 = getelementptr inbounds nuw i8, ptr %0, i64 88
  store i32 1, ptr %43, align 8, !tbaa !19
  call void @mbedtls_platform_zeroize(ptr noundef nonnull %6, i64 noundef %.1.i.i) #12
  call void @llvm.lifetime.end.p0(i64 384, ptr nonnull %6) #12
  br label %49

mbedtls_hmac_drbg_reseed.exit.thread:             ; preds = %26, %.critedge.i.i
  %.135.i.i.ph = phi i32 [ -9, %.critedge.i.i ], [ -5, %26 ]
  call void @llvm.lifetime.end.p0(i64 384, ptr nonnull %6) #12
  br label %.thread77

mbedtls_hmac_drbg_reseed.exit:                    ; preds = %41
  call void @mbedtls_platform_zeroize(ptr noundef nonnull %6, i64 noundef %.1.i.i) #12
  call void @llvm.lifetime.end.p0(i64 384, ptr nonnull %6) #12
  br label %.thread77

44:                                               ; preds = %20, %13
  %45 = icmp ne ptr %3, null
  %46 = icmp ne i64 %4, 0
  %or.cond = and i1 %45, %46
  br i1 %or.cond, label %47, label %49

47:                                               ; preds = %44
  %48 = tail call i32 @mbedtls_hmac_drbg_update(ptr noundef nonnull %0, ptr noundef nonnull %3, i64 noundef %4)
  %.not63 = icmp eq i32 %48, 0
  br i1 %.not63, label %49, label %.thread77

49:                                               ; preds = %.thread, %47, %44
  %.04876 = phi i64 [ 0, %.thread ], [ %4, %47 ], [ %4, %44 ]
  %.not6483 = icmp eq i64 %2, 0
  br i1 %.not6483, label %._crit_edge, label %.lr.ph

.lr.ph:                                           ; preds = %49
  %50 = getelementptr inbounds nuw i8, ptr %0, i64 24
  br label %51

51:                                               ; preds = %.lr.ph, %58
  %.04585 = phi ptr [ %1, %.lr.ph ], [ %59, %58 ]
  %.04684 = phi i64 [ %2, %.lr.ph ], [ %60, %58 ]
  %52 = call i64 @llvm.umin.i64(i64 %.04684, i64 %9)
  %53 = call i32 @mbedtls_md_hmac_reset(ptr noundef nonnull %0) #12
  %.not66 = icmp eq i32 %53, 0
  br i1 %.not66, label %54, label %.thread77

54:                                               ; preds = %51
  %55 = call i32 @mbedtls_md_hmac_update(ptr noundef nonnull %0, ptr noundef nonnull %50, i64 noundef %9) #12
  %.not67 = icmp eq i32 %55, 0
  br i1 %.not67, label %56, label %.thread77

56:                                               ; preds = %54
  %57 = call i32 @mbedtls_md_hmac_finish(ptr noundef nonnull %0, ptr noundef nonnull %50) #12
  %.not68 = icmp eq i32 %57, 0
  br i1 %.not68, label %58, label %.thread77

58:                                               ; preds = %56
  call void @llvm.memcpy.p0.p0.i64(ptr align 1 %.04585, ptr nonnull align 8 %50, i64 %52, i1 false)
  %59 = getelementptr inbounds nuw i8, ptr %.04585, i64 %52
  %60 = sub i64 %.04684, %52
  %.not64 = icmp eq i64 %60, 0
  br i1 %.not64, label %._crit_edge, label %51

._crit_edge:                                      ; preds = %58, %49
  %61 = call i32 @mbedtls_hmac_drbg_update(ptr noundef nonnull %0, ptr noundef %3, i64 noundef %.04876)
  %.not65 = icmp eq i32 %61, 0
  br i1 %.not65, label %62, label %.thread77

62:                                               ; preds = %._crit_edge
  %63 = getelementptr inbounds nuw i8, ptr %0, i64 88
  %64 = load i32, ptr %63, align 8, !tbaa !19
  %65 = add nsw i32 %64, 1
  store i32 %65, ptr %63, align 8, !tbaa !19
  br label %.thread77

.thread77:                                        ; preds = %56, %54, %51, %mbedtls_hmac_drbg_reseed.exit, %mbedtls_hmac_drbg_reseed.exit.thread, %62, %47, %._crit_edge, %11, %5
  %.0 = phi i32 [ -3, %5 ], [ -5, %11 ], [ %42, %mbedtls_hmac_drbg_reseed.exit ], [ %48, %47 ], [ %61, %._crit_edge ], [ 0, %62 ], [ %.135.i.i.ph, %mbedtls_hmac_drbg_reseed.exit.thread ], [ %53, %51 ], [ %55, %54 ], [ %57, %56 ]
  ret i32 %.0
}